target datalayout = "e-m:e-p270:32:32-p271:32:32-p272:64:64-i64:64-i128:128-f80:128-n8:16:32:64-S128"
target triple = "x86_64-pc-linux-gnu"

%"class.spacer::limit_num_generalizer" = type { %"class.spacer::lemma_generalizer", i32, [4 x i8], %"struct.spacer::limit_num_generalizer::stats" }
%"class.spacer::lemma_generalizer" = type { ptr, ptr }
%"struct.spacer::limit_num_generalizer::stats" = type { i32, i32, %class.stopwatch }
%class.stopwatch = type <{ %"class.std::chrono::time_point", %"class.std::chrono::duration", i8, [7 x i8] }>
%"class.std::chrono::time_point" = type { %"class.std::chrono::duration" }
%"class.std::chrono::duration" = type { i64 }
%"class.std::chrono::duration.112" = type { i64 }

@.str = private unnamed_addr constant [36 x i8] c"time.spacer.solve.reach.gen.lim_num\00", align 1
@.str.1 = private unnamed_addr constant [17 x i8] c"limitted num gen\00", align 1
@.str.2 = private unnamed_addr constant [26 x i8] c"limitted num gen failures\00", align 1

; Function Attrs: mustprogress nounwind uwtable
define linkonce_odr hidden void @_ZNSt6chrono8durationIlSt5ratioILl1ELl1000000000EEEC2IlvEERKT_(ptr noundef nonnull align 8 dereferenceable(8) %0, ptr noundef nonnull align 8 dereferenceable(8) %1) unnamed_addr #5 comdat align 2 {
  %3 = alloca ptr, align 8
  %4 = alloca ptr, align 8
  store ptr %0, ptr %3, align 8, !tbaa !252
  store ptr %1, ptr %4, align 8, !tbaa !254
  %5 = load ptr, ptr %3, align 8
  %6 = getelementptr inbounds nuw %"class.std::chrono::duration", ptr %5, i32 0, i32 0
  %7 = load ptr, ptr %4, align 8, !tbaa !254
  %8 = load i64, ptr %7, align 8, !tbaa !251
  store i64 %8, ptr %6, align 8, !tbaa !256
  ret void
}

; Function Attrs: mustprogress nounwind uwtable
define linkonce_odr hidden void @_ZNSt6chrono8durationIlSt5ratioILl1ELl1000EEEC2IlvEERKT_(ptr noundef nonnull align 8 dereferenceable(8) %0, ptr noundef nonnull align 8 dereferenceable(8) %1) unnamed_addr #5 comdat align 2 {
  %3 = alloca ptr, align 8
  %4 = alloca ptr, align 8
  store ptr %0, ptr %3, align 8, !tbaa !286
  store ptr %1, ptr %4, align 8, !tbaa !254
  %5 = load ptr, ptr %3, align 8
  %6 = getelementptr inbounds nuw %"class.std::chrono::duration.112", ptr %5, i32 0, i32 0
  %7 = load ptr, ptr %4, align 8, !tbaa !254
  %8 = load i64, ptr %7, align 8, !tbaa !251
  store i64 %8, ptr %6, align 8, !tbaa !288
  ret void
}

; Function Attrs: mustprogress nounwind uwtable
define linkonce_odr hidden noundef i64 @_ZNKSt6chrono8durationIlSt5ratioILl1ELl1000000000EEE5countEv(ptr noundef nonnull align 8 dereferenceable(8) %0) #5 comdat align 2 {
  %2 = alloca ptr, align 8
  store ptr %0, ptr %2, align 8, !tbaa !252
  %3 = load ptr, ptr %2, align 8
  %4 = getelementptr inbounds nuw %"class.std::chrono::duration", ptr %3, i32 0, i32 0
  %5 = load i64, ptr %4, align 8, !tbaa !256
  ret i64 %5
}

; Function Attrs: mustprogress uwtable
define linkonce_odr i64 @_ZNSt6chronomiIlSt5ratioILl1ELl1000000000EElS2_EENSt11common_typeIJNS_8durationIT_T0_EENS4_IT1_T2_EEEE4typeERKS7_RKSA_(ptr noundef nonnull align 8 dereferenceable(8) %0, ptr noundef nonnull align 8 dereferenceable(8) %1) #4 comdat {
  %3 = alloca %"class.std::chrono::duration", align 8
  %4 = alloca ptr, align 8
  %5 = alloca ptr, align 8
  %6 = alloca i64, align 8
  %7 = alloca %"class.std::chrono::duration", align 8
  %8 = alloca %"class.std::chrono::duration", align 8
  store ptr %0, ptr %4, align 8, !tbaa !252
  store ptr %1, ptr %5, align 8, !tbaa !252
  call void @llvm.lifetime.start.p0(i64 8, ptr %6) #3
  call void @llvm.lifetime.start.p0(i64 8, ptr %7) #3
  %9 = load ptr, ptr %4, align 8, !tbaa !252
  call void @llvm.memcpy.p0.p0.i64(ptr align 8 %7, ptr align 8 %9, i64 8, i1 false), !tbaa.struct !250
  %10 = call noundef i64 @_ZNKSt6chrono8durationIlSt5ratioILl1ELl1000000000EEE5countEv(ptr noundef nonnull align 8 dereferenceable(8) %7)
  call void @llvm.lifetime.start.p0(i64 8, ptr %8) #3
  %11 = load ptr, ptr %5, align 8, !tbaa !252
  call void @llvm.memcpy.p0.p0.i64(ptr align 8 %8, ptr align 8 %11, i64 8, i1 false), !tbaa.struct !250
  %12 = call noundef i64 @_ZNKSt6chrono8durationIlSt5ratioILl1ELl1000000000EEE5countEv(ptr noundef nonnull align 8 dereferenceable(8) %8)
  %13 = sub nsw i64 %10, %12
  store i64 %13, ptr %6, align 8, !tbaa !251
  call void @_ZNSt6chrono8durationIlSt5ratioILl1ELl1000000000EEEC2IlvEERKT_(ptr noundef nonnull align 8 dereferenceable(8) %3, ptr noundef nonnull align 8 dereferenceable(8) %6)
  call void @llvm.lifetime.end.p0(i64 8, ptr %8) #3
  call void @llvm.lifetime.end.p0(i64 8, ptr %7) #3
  call void @llvm.lifetime.end.p0(i64 8, ptr %6) #3
  %14 = getelementptr inbounds nuw %"class.std::chrono::duration", ptr %3, i32 0, i32 0
  %15 = load i64, ptr %14, align 8
  ret i64 %15
}

; Function Attrs: mustprogress nounwind uwtable
define linkonce_odr hidden i64 @_ZNKSt6chrono10time_pointINS_3_V212steady_clockENS_8durationIlSt5ratioILl1ELl1000000000EEEEE16time_since_epochEv(ptr noundef nonnull align 8 dereferenceable(8) %0) #5 comdat align 2 {
  %2 = alloca %"class.std::chrono::duration", align 8
  %3 = alloca ptr, align 8
  store ptr %0, ptr %3, align 8, !tbaa !248
  %4 = load ptr, ptr %3, align 8
  %5 = getelementptr inbounds nuw %"class.std::chrono::time_point", ptr %4, i32 0, i32 0
  call void @llvm.memcpy.p0.p0.i64(ptr align 8 %2, ptr align 8 %5, i64 8, i1 false), !tbaa.struct !250
  %6 = getelementptr inbounds nuw %"class.std::chrono::duration", ptr %2, i32 0, i32 0
  %7 = load i64, ptr %6, align 8
  ret i64 %7
}

; Function Attrs: mustprogress uwtable
define linkonce_odr hidden i64 @_ZNSt6chrono20__duration_cast_implINS_8durationIlSt5ratioILl1ELl1000EEEES2_ILl1ELl1000000EElLb1ELb0EE6__castIlS2_ILl1ELl1000000000EEEES4_RKNS1_IT_T0_EE(ptr noundef nonnull align 8 dereferenceable(8) %0) #4 comdat align 2 {
  %2 = alloca %"class.std::chrono::duration.112", align 8
  %3 = alloca ptr, align 8
  %4 = alloca i64, align 8
  store ptr %0, ptr %3, align 8, !tbaa !252
  call void @llvm.lifetime.start.p0(i64 8, ptr %4) #3
  %5 = load ptr, ptr %3, align 8, !tbaa !252
  %6 = call noundef i64 @_ZNKSt6chrono8durationIlSt5ratioILl1ELl1000000000EEE5countEv(ptr noundef nonnull align 8 dereferenceable(8) %5)
  %7 = sdiv i64 %6, 1000000
  store i64 %7, ptr %4, align 8, !tbaa !251
  call void @_ZNSt6chrono8durationIlSt5ratioILl1ELl1000EEEC2IlvEERKT_(ptr noundef nonnull align 8 dereferenceable(8) %2, ptr noundef nonnull align 8 dereferenceable(8) %4)
  call void @llvm.lifetime.end.p0(i64 8, ptr %4) #3
  %8 = getelementptr inbounds nuw %"class.std::chrono::duration.112", ptr %2, i32 0, i32 0
  %9 = load i64, ptr %8, align 8
  ret i64 %9
}

; Function Attrs: mustprogress nounwind uwtable
define linkonce_odr hidden noundef nonnull align 8 dereferenceable(8) ptr @_ZNSt6chrono8durationIlSt5ratioILl1ELl1000000000EEEpLERKS3_(ptr noundef nonnull align 8 dereferenceable(8) %0, ptr noundef nonnull align 8 dereferenceable(8) %1) #5 comdat align 2 {
  %3 = alloca ptr, align 8
  %4 = alloca ptr, align 8
  store ptr %0, ptr %3, align 8, !tbaa !252
  store ptr %1, ptr %4, align 8, !tbaa !252
  %5 = load ptr, ptr %3, align 8
  %6 = load ptr, ptr %4, align 8, !tbaa !252
  %7 = call noundef i64 @_ZNKSt6chrono8durationIlSt5ratioILl1ELl1000000000EEE5countEv(ptr noundef nonnull align 8 dereferenceable(8) %6)
  %8 = getelementptr inbounds nuw %"class.std::chrono::duration", ptr %5, i32 0, i32 0
  %9 = load i64, ptr %8, align 8, !tbaa !256
  %10 = add nsw i64 %9, %7
  store i64 %10, ptr %8, align 8, !tbaa !256
  ret ptr %5
}

; Function Attrs: mustprogress uwtable
define linkonce_odr i64 @_ZNSt6chronomiINS_3_V212steady_clockENS_8durationIlSt5ratioILl1ELl1000000000EEEES6_EENSt11common_typeIJT0_T1_EE4typeERKNS_10time_pointIT_S8_EERKNSC_ISD_S9_EE(ptr noundef nonnull align 8 dereferenceable(8) %0, ptr noundef nonnull align 8 dereferenceable(8) %1) #4 comdat {
  %3 = alloca %"class.std::chrono::duration", align 8
  %4 = alloca ptr, align 8
  %5 = alloca ptr, align 8
  %6 = alloca %"class.std::chrono::duration", align 8
  %7 = alloca %"class.std::chrono::duration", align 8
  store ptr %0, ptr %4, align 8, !tbaa !248
  store ptr %1, ptr %5, align 8, !tbaa !248
  call void @llvm.lifetime.start.p0(i64 8, ptr %6) #3
  %8 = load ptr, ptr %4, align 8, !tbaa !248
  %9 = call i64 @_ZNKSt6chrono10time_pointINS_3_V212steady_clockENS_8durationIlSt5ratioILl1ELl1000000000EEEEE16time_since_epochEv(ptr noundef nonnull align 8 dereferenceable(8) %8)
  %10 = getelementptr inbounds nuw %"class.std::chrono::duration", ptr %6, i32 0, i32 0
  store i64 %9, ptr %10, align 8
  call void @llvm.lifetime.start.p0(i64 8, ptr %7) #3
  %11 = load ptr, ptr %5, align 8, !tbaa !248
  %12 = call i64 @_ZNKSt6chrono10time_pointINS_3_V212steady_clockENS_8durationIlSt5ratioILl1ELl1000000000EEEEE16time_since_epochEv(ptr noundef nonnull align 8 dereferenceable(8) %11)
  %13 = getelementptr inbounds nuw %"class.std::chrono::duration", ptr %7, i32 0, i32 0
  store i64 %12, ptr %13, align 8
  %14 = call i64 @_ZNSt6chronomiIlSt5ratioILl1ELl1000000000EElS2_EENSt11common_typeIJNS_8durationIT_T0_EENS4_IT1_T2_EEEE4typeERKS7_RKSA_(ptr noundef nonnull align 8 dereferenceable(8) %6, ptr noundef nonnull align 8 dereferenceable(8) %7)
  %15 = getelementptr inbounds nuw %"class.std::chrono::duration", ptr %3, i32 0, i32 0
  store i64 %14, ptr %15, align 8
  call void @llvm.lifetime.end.p0(i64 8, ptr %7) #3
  call void @llvm.lifetime.end.p0(i64 8, ptr %6) #3
  %16 = getelementptr inbounds nuw %"class.std::chrono::duration", ptr %3, i32 0, i32 0
  %17 = load i64, ptr %16, align 8
  ret i64 %17
}

; Function Attrs: mustprogress nounwind uwtable
define linkonce_odr hidden i64 @_ZN9stopwatch3getEv() #5 comdat align 2 {
  %1 = alloca %"class.std::chrono::time_point", align 8
  %2 = call i64 @_ZNSt6chrono3_V212steady_clock3nowEv() #3
  %3 = getelementptr inbounds nuw %"class.std::chrono::time_point", ptr %1, i32 0, i32 0
  %4 = getelementptr inbounds nuw %"class.std::chrono::duration", ptr %3, i32 0, i32 0
  store i64 %2, ptr %4, align 8
  %5 = getelementptr inbounds nuw %"class.std::chrono::time_point", ptr %1, i32 0, i32 0
  %6 = getelementptr inbounds nuw %"class.std::chrono::duration", ptr %5, i32 0, i32 0
  %7 = load i64, ptr %6, align 8
  ret i64 %7
}

; Function Attrs: mustprogress nounwind uwtable
define linkonce_odr hidden noundef i64 @_ZNKSt6chrono8durationIlSt5ratioILl1ELl1000EEE5countEv(ptr noundef nonnull align 8 dereferenceable(8) %0) #5 comdat align 2 {
  %2 = alloca ptr, align 8
  store ptr %0, ptr %2, align 8, !tbaa !286
  %3 = load ptr, ptr %2, align 8
  %4 = getelementptr inbounds nuw %"class.std::chrono::duration.112", ptr %3, i32 0, i32 0
  %5 = load i64, ptr %4, align 8, !tbaa !288
  ret i64 %5
}

; Function Attrs: mustprogress uwtable
define linkonce_odr i64 @_ZNSt6chrono13duration_castINS_8durationIlSt5ratioILl1ELl1000EEEElS2_ILl1ELl1000000000EEEENSt9enable_ifIXsr13__is_durationIT_EE5valueES7_E4typeERKNS1_IT0_T1_EE(ptr noundef nonnull align 8 dereferenceable(8) %0) #4 comdat {
  %2 = alloca %"class.std::chrono::duration.112", align 8
  %3 = alloca ptr, align 8
  store ptr %0, ptr %3, align 8, !tbaa !252
  %4 = load ptr, ptr %3, align 8, !tbaa !252
  %5 = call i64 @_ZNSt6chrono20__duration_cast_implINS_8durationIlSt5ratioILl1ELl1000EEEES2_ILl1ELl1000000EElLb1ELb0EE6__castIlS2_ILl1ELl1000000000EEEES4_RKNS1_IT_T0_EE(ptr noundef nonnull align 8 dereferenceable(8) %4)
  %6 = getelementptr inbounds nuw %"class.std::chrono::duration.112", ptr %2, i32 0, i32 0
  store i64 %5, ptr %6, align 8
  %7 = getelementptr inbounds nuw %"class.std::chrono::duration.112", ptr %2, i32 0, i32 0
  %8 = load i64, ptr %7, align 8
  ret i64 %8
}

; Function Attrs: mustprogress uwtable
define linkonce_odr hidden void @_ZN9stopwatch5startEv(ptr noundef nonnull align 8 dereferenceable(17) %0) #4 comdat align 2 {
  %2 = alloca ptr, align 8
  %3 = alloca %"class.std::chrono::time_point", align 8
  store ptr %0, ptr %2, align 8, !tbaa !165
  %4 = load ptr, ptr %2, align 8
  %5 = getelementptr inbounds nuw %class.stopwatch, ptr %4, i32 0, i32 2
  %6 = load i8, ptr %5, align 8, !tbaa !245, !range !35, !noundef !36
  %7 = trunc i8 %6 to i1
  br i1 %7, label %14, label %8

8:                                                ; preds = %1
  call void @llvm.lifetime.start.p0(i64 8, ptr %3) #3
  %9 = call i64 @_ZN9stopwatch3getEv()
  %10 = getelementptr inbounds nuw %"class.std::chrono::time_point", ptr %3, i32 0, i32 0
  %11 = getelementptr inbounds nuw %"class.std::chrono::duration", ptr %10, i32 0, i32 0
  store i64 %9, ptr %11, align 8
  %12 = getelementptr inbounds nuw %class.stopwatch, ptr %4, i32 0, i32 0
  call void @llvm.memcpy.p0.p0.i64(ptr align 8 %12, ptr align 8 %3, i64 8, i1 false), !tbaa.struct !250
  call void @llvm.lifetime.end.p0(i64 8, ptr %3) #3
  %13 = getelementptr inbounds nuw %class.stopwatch, ptr %4, i32 0, i32 2
  store i8 1, ptr %13, align 8, !tbaa !245
  br label %14

14:                                               ; preds = %8, %1
  ret void
}

; Function Attrs: mustprogress uwtable
define linkonce_odr hidden void @_ZN9stopwatch4stopEv(ptr noundef nonnull align 8 dereferenceable(17) %0) #4 comdat align 2 {
  %2 = alloca ptr, align 8
  %3 = alloca %"class.std::chrono::duration", align 8
  %4 = alloca %"class.std::chrono::time_point", align 8
  store ptr %0, ptr %2, align 8, !tbaa !165
  %5 = load ptr, ptr %2, align 8
  %6 = getelementptr inbounds nuw %class.stopwatch, ptr %5, i32 0, i32 2
  %7 = load i8, ptr %6, align 8, !tbaa !245, !range !35, !noundef !36
  %8 = trunc i8 %7 to i1
  br i1 %8, label %9, label %19

9:                                                ; preds = %1
  call void @llvm.lifetime.start.p0(i64 8, ptr %3) #3
  call void @llvm.lifetime.start.p0(i64 8, ptr %4) #3
  %10 = call i64 @_ZN9stopwatch3getEv()
  %11 = getelementptr inbounds nuw %"class.std::chrono::time_point", ptr %4, i32 0, i32 0
  %12 = getelementptr inbounds nuw %"class.std::chrono::duration", ptr %11, i32 0, i32 0
  store i64 %10, ptr %12, align 8
  %13 = getelementptr inbounds nuw %class.stopwatch, ptr %5, i32 0, i32 0
  %14 = call i64 @_ZNSt6chronomiINS_3_V212steady_clockENS_8durationIlSt5ratioILl1ELl1000000000EEEES6_EENSt11common_typeIJT0_T1_EE4typeERKNS_10time_pointIT_S8_EERKNSC_ISD_S9_EE(ptr noundef nonnull align 8 dereferenceable(8) %4, ptr noundef nonnull align 8 dereferenceable(8) %13)
  %15 = getelementptr inbounds nuw %"class.std::chrono::duration", ptr %3, i32 0, i32 0
  store i64 %14, ptr %15, align 8
  %16 = getelementptr inbounds nuw %class.stopwatch, ptr %5, i32 0, i32 1
  %17 = call noundef nonnull align 8 dereferenceable(8) ptr @_ZNSt6chrono8durationIlSt5ratioILl1ELl1000000000EEEpLERKS3_(ptr noundef nonnull align 8 dereferenceable(8) %16, ptr noundef nonnull align 8 dereferenceable(8) %3)
  call void @llvm.lifetime.end.p0(i64 8, ptr %4) #3
  call void @llvm.lifetime.end.p0(i64 8, ptr %3) #3
  %18 = getelementptr inbounds nuw %class.stopwatch, ptr %5, i32 0, i32 2
  store i8 0, ptr %18, align 8, !tbaa !245
  br label %19

19:                                               ; preds = %9, %1
  ret void
}

; Function Attrs: mustprogress uwtable
define linkonce_odr hidden noundef double @_ZNK9stopwatch11get_secondsEv(ptr noundef nonnull align 8 dereferenceable(17) %0) #4 comdat align 2 {
  %2 = alloca ptr, align 8
  %3 = alloca %"class.std::chrono::duration.112", align 8
  store ptr %0, ptr %2, align 8, !tbaa !165
  %4 = load ptr, ptr %2, align 8
  %5 = getelementptr inbounds nuw %class.stopwatch, ptr %4, i32 0, i32 2
  %6 = load i8, ptr %5, align 8, !tbaa !245, !range !35, !noundef !36
  %7 = trunc i8 %6 to i1
  br i1 %7, label %8, label %9

8:                                                ; preds = %1
  call void @_ZN9stopwatch4stopEv(ptr noundef nonnull align 8 dereferenceable(17) %4)
  call void @_ZN9stopwatch5startEv(ptr noundef nonnull align 8 dereferenceable(17) %4)
  br label %9

9:                                                ; preds = %8, %1
  call void @llvm.lifetime.start.p0(i64 8, ptr %3) #3
  %10 = getelementptr inbounds nuw %class.stopwatch, ptr %4, i32 0, i32 1
  %11 = call i64 @_ZNSt6chrono13duration_castINS_8durationIlSt5ratioILl1ELl1000EEEElS2_ILl1ELl1000000000EEEENSt9enable_ifIXsr13__is_durationIT_EE5valueES7_E4typeERKNS1_IT0_T1_EE(ptr noundef nonnull align 8 dereferenceable(8) %10)
  %12 = getelementptr inbounds nuw %"class.std::chrono::duration.112", ptr %3, i32 0, i32 0
  store i64 %11, ptr %12, align 8
  %13 = call noundef i64 @_ZNKSt6chrono8durationIlSt5ratioILl1ELl1000EEE5countEv(ptr noundef nonnull align 8 dereferenceable(8) %3)
  %14 = sitofp i64 %13 to double
  %15 = fdiv double %14, 1.000000e+03
  call void @llvm.lifetime.end.p0(i64 8, ptr %3) #3
  ret double %15
}

; Function Attrs: mustprogress uwtable
define hidden void @_ZNK6spacer21limit_num_generalizer18collect_statisticsER10statistics(ptr noundef nonnull align 8 dereferenceable(56) %0, ptr noundef nonnull align 8 dereferenceable(16) %1) unnamed_addr #4 align 2 {
  %3 = alloca ptr, align 8
  %4 = alloca ptr, align 8
  store ptr %0, ptr %3, align 8, !tbaa !3
  store ptr %1, ptr %4, align 8, !tbaa !243
  %5 = load ptr, ptr %3, align 8
  %6 = load ptr, ptr %4, align 8, !tbaa !243
  %7 = getelementptr inbounds nuw %"class.spacer::limit_num_generalizer", ptr %5, i32 0, i32 3
  %8 = getelementptr inbounds nuw %"struct.spacer::limit_num_generalizer::stats", ptr %7, i32 0, i32 2
  %9 = call noundef double @_ZNK9stopwatch11get_secondsEv(ptr noundef nonnull align 8 dereferenceable(17) %8)
  call void @_ZN10statistics6updateEPKcd(ptr noundef nonnull align 8 dereferenceable(16) %6, ptr noundef @.str, double noundef %9)
  %10 = load ptr, ptr %4, align 8, !tbaa !243
  %11 = getelementptr inbounds nuw %"class.spacer::limit_num_generalizer", ptr %5, i32 0, i32 3
  %12 = getelementptr inbounds nuw %"struct.spacer::limit_num_generalizer::stats", ptr %11, i32 0, i32 0
  %13 = load i32, ptr %12, align 8, !tbaa !154
  call void @_ZN10statistics6updateEPKcj(ptr noundef nonnull align 8 dereferenceable(16) %10, ptr noundef @.str.1, i32 noundef %13)
  %14 = load ptr, ptr %4, align 8, !tbaa !243
  %15 = getelementptr inbounds nuw %"class.spacer::limit_num_generalizer", ptr %5, i32 0, i32 3
  %16 = getelementptr inbounds nuw %"struct.spacer::limit_num_generalizer::stats", ptr %15, i32 0, i32 1
  %17 = load i32, ptr %16, align 4, !tbaa !158
  call void @_ZN10statistics6updateEPKcj(ptr noundef nonnull align 8 dereferenceable(16) %14, ptr noundef @.str.2, i32 noundef %17)
  ret void
}