; Function Attrs: mustprogress uwtable
define hidden void @_ZNK6spacer21limit_num_generalizer18collect_statisticsER10statistics(ptr noundef nonnull align 8 captures(none) dereferenceable(56) %0, ptr noundef nonnull align 8 dereferenceable(16) %1) unnamed_addr #4 align 2 {
  %3 = getelementptr inbounds nuw i8, ptr %0, i64 48
  %4 = load i8, ptr %3, align 8, !tbaa !140, !range !141, !noundef !142
  %5 = trunc nuw i8 %4 to i1
  br i1 %5, label %_ZN9stopwatch4stopEv.exit.i, label %_ZNK9stopwatch11get_secondsEv.exit

_ZN9stopwatch4stopEv.exit.i:                      ; preds = %2
  %6 = getelementptr inbounds nuw i8, ptr %0, i64 32
  %7 = tail call i64 @_ZNSt6chrono3_V212steady_clock3nowEv() #20
  %.sroa.0.0.copyload.i2.i.i.i = load i64, ptr %6, align 8, !tbaa !143
  %8 = sub i64 %7, %.sroa.0.0.copyload.i2.i.i.i
  %9 = getelementptr inbounds nuw i8, ptr %0, i64 40
  %10 = load i64, ptr %9, align 8, !tbaa !222
  %11 = add nsw i64 %8, %10
  store i64 %11, ptr %9, align 8, !tbaa !222
  store i8 0, ptr %3, align 8, !tbaa !140
  %12 = tail call i64 @_ZNSt6chrono3_V212steady_clock3nowEv() #20
  store i64 %12, ptr %6, align 8, !tbaa !143
  store i8 1, ptr %3, align 8, !tbaa !140
  br label %_ZNK9stopwatch11get_secondsEv.exit

_ZNK9stopwatch11get_secondsEv.exit:               ; preds = %2, %_ZN9stopwatch4stopEv.exit.i
  %13 = getelementptr inbounds nuw i8, ptr %0, i64 24
  %14 = getelementptr inbounds nuw i8, ptr %0, i64 40
  %15 = load i64, ptr %14, align 8, !tbaa !222
  %16 = sdiv i64 %15, 1000000
  %17 = sitofp i64 %16 to double
  %18 = fdiv double %17, 1.000000e+03
  tail call void @_ZN10statistics6updateEPKcd(ptr noundef nonnull align 8 dereferenceable(16) %1, ptr noundef nonnull @.str, double noundef %18)
  %19 = load i32, ptr %13, align 8, !tbaa !139
  tail call void @_ZN10statistics6updateEPKcj(ptr noundef nonnull align 8 dereferenceable(16) %1, ptr noundef nonnull @.str.1, i32 noundef %19)
  %20 = getelementptr inbounds nuw i8, ptr %0, i64 28
  %21 = load i32, ptr %20, align 4, !tbaa !216
  tail call void @_ZN10statistics6updateEPKcj(ptr noundef nonnull align 8 dereferenceable(16) %1, ptr noundef nonnull @.str.2, i32 noundef %21)
  ret void
}